; Function Attrs: nounwind uwtable
define dso_local void @archive_entry_copy_link_w(ptr noundef %0, ptr noundef %1) local_unnamed_addr #0 {
  %3 = getelementptr inbounds nuw i8, ptr %0, i64 424
  %4 = tail call i32 @archive_mstring_copy_wcs(ptr noundef nonnull %3, ptr noundef %1) #21
  %5 = getelementptr inbounds nuw i8, ptr %0, i64 192
  %6 = load i32, ptr %5, align 8, !tbaa !31
  %7 = and i32 %6, 2
  %8 = icmp eq i32 %7, 0
  br i1 %8, label %9, label %11

9:                                                ; preds = %2
  %10 = or i32 %6, 1
  store i32 %10, ptr %5, align 8, !tbaa !31
  br label %11

11:                                               ; preds = %9, %2
  ret void
}